; Function Attrs: mustprogress uwtable
define dso_local noundef nonnull align 8 dereferenceable(40) ptr @_ZN4Json5Value6appendERKS0_(ptr nocapture noundef nonnull align 8 dereferenceable(40) %0, ptr nocapture noundef nonnull readonly align 8 dereferenceable(40) %1) local_unnamed_addr #10 align 2 personality ptr @__gxx_personality_v0 {
  %3 = alloca %"class.Json::Value", align 8
  %4 = getelementptr inbounds i8, ptr %3, i64 16
  store ptr null, ptr %4, align 8
  invoke void @_ZN4Json5Value10dupPayloadERKS0_(ptr noundef nonnull align 8 dereferenceable(40) %3, ptr noundef nonnull align 8 dereferenceable(40) %1)
          to label %5 unwind label %8

5:                                                ; preds = %2
  %6 = getelementptr inbounds i8, ptr %1, i64 16
  %7 = invoke noundef nonnull align 8 dereferenceable(8) ptr @_ZN4Json5Value8CommentsaSERKS1_(ptr noundef nonnull align 8 dereferenceable(8) %4, ptr noundef nonnull align 8 dereferenceable(8) %6)
          to label %_ZN4Json5ValueC2ERKS0_.exit unwind label %8

common.resume:                                    ; preds = %15, %8
  %common.resume.op = phi { ptr, i32 } [ %9, %8 ], [ %16, %15 ]
  resume { ptr, i32 } %common.resume.op

8:                                                ; preds = %5, %2
  %9 = landingpad { ptr, i32 }
          cleanup
  call void @_ZN4Json5Value8CommentsD2Ev(ptr noundef nonnull align 8 dereferenceable(8) %4) #35
  br label %common.resume

_ZN4Json5ValueC2ERKS0_.exit:                      ; preds = %5
  %10 = getelementptr inbounds i8, ptr %1, i64 24
  %11 = getelementptr inbounds i8, ptr %3, i64 24
  %12 = load <2 x i64>, ptr %10, align 8
  store <2 x i64> %12, ptr %11, align 8
  %13 = invoke noundef nonnull align 8 dereferenceable(40) ptr @_ZN4Json5Value6appendEOS0_(ptr noundef nonnull align 8 dereferenceable(40) %0, ptr noundef nonnull align 8 dereferenceable(40) %3)
          to label %14 unwind label %15

14:                                               ; preds = %_ZN4Json5ValueC2ERKS0_.exit
  call void @_ZN4Json5ValueD2Ev(ptr noundef nonnull align 8 dereferenceable(40) %3) #35
  ret ptr %13

15:                                               ; preds = %_ZN4Json5ValueC2ERKS0_.exit
  %16 = landingpad { ptr, i32 }
          cleanup
  call void @_ZN4Json5ValueD2Ev(ptr noundef nonnull align 8 dereferenceable(40) %3) #35
  br label %common.resume
}